; Function Attrs: mustprogress uwtable
define noundef nonnull align 8 dereferenceable(72) ptr @_ZN3url6ParsedaSERKS0_(ptr noundef nonnull returned align 8 captures(address, ret: address, provenance) dereferenceable(72) %0, ptr noundef nonnull readonly align 8 captures(address) dereferenceable(72) %1) local_unnamed_addr #1 align 2 personality ptr @__gxx_personality_v0 {
  %.not = icmp eq ptr %0, %1
  br i1 %.not, label %_ZN3url6Parsed16set_inner_parsedERKS0_.exit, label %3

3:                                                ; preds = %2
  %4 = load i64, ptr %1, align 8
  store i64 %4, ptr %0, align 8
  %5 = getelementptr inbounds nuw i8, ptr %1, i64 8
  %6 = getelementptr inbounds nuw i8, ptr %0, i64 8
  %7 = load i64, ptr %5, align 8
  store i64 %7, ptr %6, align 8
  %8 = getelementptr inbounds nuw i8, ptr %1, i64 16
  %9 = getelementptr inbounds nuw i8, ptr %0, i64 16
  %10 = load i64, ptr %8, align 8
  store i64 %10, ptr %9, align 8
  %11 = getelementptr inbounds nuw i8, ptr %1, i64 24
  %12 = getelementptr inbounds nuw i8, ptr %0, i64 24
  %13 = load i64, ptr %11, align 8
  store i64 %13, ptr %12, align 8
  %14 = getelementptr inbounds nuw i8, ptr %1, i64 32
  %15 = getelementptr inbounds nuw i8, ptr %0, i64 32
  %16 = load i64, ptr %14, align 8
  store i64 %16, ptr %15, align 8
  %17 = getelementptr inbounds nuw i8, ptr %1, i64 40
  %18 = getelementptr inbounds nuw i8, ptr %0, i64 40
  %19 = load i64, ptr %17, align 8
  store i64 %19, ptr %18, align 8
  %20 = getelementptr inbounds nuw i8, ptr %1, i64 48
  %21 = getelementptr inbounds nuw i8, ptr %0, i64 48
  %22 = load i64, ptr %20, align 8
  store i64 %22, ptr %21, align 8
  %23 = getelementptr inbounds nuw i8, ptr %1, i64 56
  %24 = getelementptr inbounds nuw i8, ptr %0, i64 56
  %25 = load i64, ptr %23, align 8
  store i64 %25, ptr %24, align 8
  %26 = getelementptr inbounds nuw i8, ptr %1, i64 64
  %27 = load ptr, ptr %26, align 8, !tbaa !9
  %.not14 = icmp eq ptr %27, null
  br i1 %.not14, label %66, label %tailrecurse.i

tailrecurse.i:                                    ; preds = %3, %37
  %.tr.i = phi ptr [ %29, %37 ], [ %0, %3 ]
  %.tr5.i = phi ptr [ %61, %37 ], [ %27, %3 ]
  %28 = getelementptr inbounds nuw i8, ptr %.tr.i, i64 64
  %29 = load ptr, ptr %28, align 8, !tbaa !9
  %.not.i = icmp eq ptr %29, null
  br i1 %.not.i, label %30, label %36

30:                                               ; preds = %tailrecurse.i
  %31 = tail call noalias noundef nonnull dereferenceable(72) ptr @_Znwm(i64 noundef 72) #13
  invoke void @_ZN3url6ParsedC1ERKS0_(ptr noundef nonnull align 8 dereferenceable(72) %31, ptr noundef nonnull align 8 dereferenceable(72) %.tr5.i)
          to label %32 unwind label %34

32:                                               ; preds = %30
  %33 = getelementptr inbounds nuw i8, ptr %.tr.i, i64 64
  store ptr %31, ptr %33, align 8, !tbaa !9
  br label %_ZN3url6Parsed16set_inner_parsedERKS0_.exit

34:                                               ; preds = %30
  %35 = landingpad { ptr, i32 }
          cleanup
  tail call void @_ZdlPv(ptr noundef nonnull %31) #14
  resume { ptr, i32 } %35

36:                                               ; preds = %tailrecurse.i
  %.not.i.i = icmp eq ptr %29, %.tr5.i
  br i1 %.not.i.i, label %_ZN3url6Parsed16set_inner_parsedERKS0_.exit, label %37

37:                                               ; preds = %36
  %38 = load i64, ptr %.tr5.i, align 8
  store i64 %38, ptr %29, align 8
  %39 = getelementptr inbounds nuw i8, ptr %.tr5.i, i64 8
  %40 = getelementptr inbounds nuw i8, ptr %29, i64 8
  %41 = load i64, ptr %39, align 8
  store i64 %41, ptr %40, align 8
  %42 = getelementptr inbounds nuw i8, ptr %.tr5.i, i64 16
  %43 = getelementptr inbounds nuw i8, ptr %29, i64 16
  %44 = load i64, ptr %42, align 8
  store i64 %44, ptr %43, align 8
  %45 = getelementptr inbounds nuw i8, ptr %.tr5.i, i64 24
  %46 = getelementptr inbounds nuw i8, ptr %29, i64 24
  %47 = load i64, ptr %45, align 8
  store i64 %47, ptr %46, align 8
  %48 = getelementptr inbounds nuw i8, ptr %.tr5.i, i64 32
  %49 = getelementptr inbounds nuw i8, ptr %29, i64 32
  %50 = load i64, ptr %48, align 8
  store i64 %50, ptr %49, align 8
  %51 = getelementptr inbounds nuw i8, ptr %.tr5.i, i64 40
  %52 = getelementptr inbounds nuw i8, ptr %29, i64 40
  %53 = load i64, ptr %51, align 8
  store i64 %53, ptr %52, align 8
  %54 = getelementptr inbounds nuw i8, ptr %.tr5.i, i64 48
  %55 = getelementptr inbounds nuw i8, ptr %29, i64 48
  %56 = load i64, ptr %54, align 8
  store i64 %56, ptr %55, align 8
  %57 = getelementptr inbounds nuw i8, ptr %.tr5.i, i64 56
  %58 = getelementptr inbounds nuw i8, ptr %29, i64 56
  %59 = load i64, ptr %57, align 8
  store i64 %59, ptr %58, align 8
  %60 = getelementptr inbounds nuw i8, ptr %.tr5.i, i64 64
  %61 = load ptr, ptr %60, align 8, !tbaa !9
  %.not14.i.i = icmp eq ptr %61, null
  br i1 %.not14.i.i, label %62, label %tailrecurse.i

62:                                               ; preds = %37
  %63 = getelementptr inbounds nuw i8, ptr %29, i64 64
  %64 = load ptr, ptr %63, align 8, !tbaa !9
  %.not.i4.i = icmp eq ptr %64, null
  br i1 %.not.i4.i, label %_ZN3url6Parsed16set_inner_parsedERKS0_.exit, label %65

65:                                               ; preds = %62
  tail call void @_ZN3url6ParsedD1Ev(ptr noundef nonnull align 8 dereferenceable(72) %64) #15
  tail call void @_ZdlPv(ptr noundef nonnull %64) #14
  store ptr null, ptr %63, align 8, !tbaa !9
  br label %_ZN3url6Parsed16set_inner_parsedERKS0_.exit

66:                                               ; preds = %3
  %67 = getelementptr inbounds nuw i8, ptr %0, i64 64
  %68 = load ptr, ptr %67, align 8, !tbaa !9
  %.not.i15 = icmp eq ptr %68, null
  br i1 %.not.i15, label %_ZN3url6Parsed16set_inner_parsedERKS0_.exit, label %69

69:                                               ; preds = %66
  tail call void @_ZN3url6ParsedD1Ev(ptr noundef nonnull align 8 dereferenceable(72) %68) #15
  tail call void @_ZdlPv(ptr noundef nonnull %68) #14
  store ptr null, ptr %67, align 8, !tbaa !9
  br label %_ZN3url6Parsed16set_inner_parsedERKS0_.exit

_ZN3url6Parsed16set_inner_parsedERKS0_.exit:      ; preds = %36, %69, %66, %65, %62, %32, %2
  ret ptr %0
}